target datalayout = "e-m:e-p270:32:32-p271:32:32-p272:64:64-i64:64-i128:128-f80:128-n8:16:32:64-S128"
target triple = "x86_64-pc-linux-gnu"

%struct.aiString = type { i32, [1024 x i8] }
%class.aiMatrix4x4t = type { float, float, float, float, float, float, float, float, float, float, float, float, float, float, float, float }
%class.aiVector3t = type { float, float, float }
%struct.aiMesh = type { i32, i32, i32, ptr, ptr, ptr, ptr, [8 x ptr], [8 x ptr], [8 x i32], ptr, i32, ptr, i32, %struct.aiString, i32, ptr, i32, %struct.aiAABB, ptr }
%struct.aiAABB = type { %class.aiVector3t, %class.aiVector3t }
%struct.aiBone = type { %struct.aiString, i32, ptr, ptr, ptr, %class.aiMatrix4x4t }
%struct.aiVertexWeight = type { i32, float }

@.str.52 = private unnamed_addr constant [28 x i8] c"aiBone::mNumWeights is zero\00", align 1
@.str.53 = private unnamed_addr constant [47 x i8] c"aiBone::mWeights[%i].mVertexId is out of range\00", align 1
@.str.54 = private unnamed_addr constant [103 x i8] c"aiBone::mWeights[%i].mWeight has an invalid value %i. Value must be greater than zero and less than 1.\00", align 1
@.str.114 = private unnamed_addr constant [51 x i8] c"aiString::length is too large (%u, maximum is %lu)\00", align 1
@.str.115 = private unnamed_addr constant [66 x i8] c"aiString::data is invalid: the terminal zero is at a wrong offset\00", align 1
@.str.116 = private unnamed_addr constant [58 x i8] c"aiString::data is invalid. There is no terminal character\00", align 1

; Function Attrs: mustprogress uwtable
define hidden void @_ZN6Assimp17ValidateDSProcess8ValidateEPK8aiString(ptr noundef nonnull align 8 dereferenceable(32) %0, ptr noundef %1) #5 align 2 {
  %3 = alloca ptr, align 8
  %4 = alloca ptr, align 8
  %5 = alloca ptr, align 8
  store ptr %0, ptr %3, align 8
  store ptr %1, ptr %4, align 8
  %6 = load ptr, ptr %3, align 8
  %7 = load ptr, ptr %4, align 8
  %8 = getelementptr inbounds nuw %struct.aiString, ptr %7, i32 0, i32 0
  %9 = load i32, ptr %8, align 4
  %10 = zext i32 %9 to i64
  %11 = icmp ugt i64 %10, 1024
  br i1 %11, label %12, label %16

12:                                               ; preds = %2
  %13 = load ptr, ptr %4, align 8
  %14 = getelementptr inbounds nuw %struct.aiString, ptr %13, i32 0, i32 0
  %15 = load i32, ptr %14, align 4
  call void (ptr, ptr, ...) @_ZN6Assimp17ValidateDSProcess11ReportErrorEPKcz(ptr noundef nonnull align 8 dereferenceable(32) %6, ptr noundef @.str.114, i32 noundef %15, i64 noundef 1024) #20
  unreachable

16:                                               ; preds = %2
  call void @llvm.lifetime.start.p0(i64 8, ptr %5) #19
  %17 = load ptr, ptr %4, align 8
  %18 = getelementptr inbounds nuw %struct.aiString, ptr %17, i32 0, i32 1
  %19 = getelementptr inbounds [1024 x i8], ptr %18, i64 0, i64 0
  store ptr %19, ptr %5, align 8
  br label %20

20:                                               ; preds = %49, %16
  br label %21

21:                                               ; preds = %20
  %22 = load ptr, ptr %5, align 8
  %23 = load i8, ptr %22, align 1
  %24 = sext i8 %23 to i32
  %25 = icmp eq i32 0, %24
  br i1 %25, label %26, label %41

26:                                               ; preds = %21
  %27 = load ptr, ptr %4, align 8
  %28 = getelementptr inbounds nuw %struct.aiString, ptr %27, i32 0, i32 0
  %29 = load i32, ptr %28, align 4
  %30 = load ptr, ptr %5, align 8
  %31 = load ptr, ptr %4, align 8
  %32 = getelementptr inbounds nuw %struct.aiString, ptr %31, i32 0, i32 1
  %33 = getelementptr inbounds [1024 x i8], ptr %32, i64 0, i64 0
  %34 = ptrtoint ptr %30 to i64
  %35 = ptrtoint ptr %33 to i64
  %36 = sub i64 %34, %35
  %37 = trunc i64 %36 to i32
  %38 = icmp ne i32 %29, %37
  br i1 %38, label %39, label %40

39:                                               ; preds = %26
  call void (ptr, ptr, ...) @_ZN6Assimp17ValidateDSProcess11ReportErrorEPKcz(ptr noundef nonnull align 8 dereferenceable(32) %6, ptr noundef @.str.115) #20
  unreachable

40:                                               ; preds = %26
  br label %52

41:                                               ; preds = %21
  %42 = load ptr, ptr %5, align 8
  %43 = load ptr, ptr %4, align 8
  %44 = getelementptr inbounds nuw %struct.aiString, ptr %43, i32 0, i32 1
  %45 = getelementptr inbounds nuw [1024 x i8], ptr %44, i64 0, i64 1024
  %46 = icmp uge ptr %42, %45
  br i1 %46, label %47, label %48

47:                                               ; preds = %41
  call void (ptr, ptr, ...) @_ZN6Assimp17ValidateDSProcess11ReportErrorEPKcz(ptr noundef nonnull align 8 dereferenceable(32) %6, ptr noundef @.str.116) #20
  unreachable

48:                                               ; preds = %41
  br label %49

49:                                               ; preds = %48
  %50 = load ptr, ptr %5, align 8
  %51 = getelementptr inbounds nuw i8, ptr %50, i32 1
  store ptr %51, ptr %5, align 8
  br label %20, !llvm.loop !24

52:                                               ; preds = %40
  call void @llvm.lifetime.end.p0(i64 8, ptr %5) #19
  ret void
}

; Function Attrs: mustprogress uwtable
define hidden void @_ZN6Assimp17ValidateDSProcess8ValidateEPK6aiMeshPK6aiBonePf(ptr noundef nonnull align 8 dereferenceable(32) %0, ptr noundef %1, ptr noundef %2, ptr noundef %3) #5 align 2 {
  %5 = alloca ptr, align 8
  %6 = alloca ptr, align 8
  %7 = alloca ptr, align 8
  %8 = alloca ptr, align 8
  %9 = alloca i32, align 4
  store ptr %0, ptr %5, align 8
  store ptr %1, ptr %6, align 8
  store ptr %2, ptr %7, align 8
  store ptr %3, ptr %8, align 8
  %10 = load ptr, ptr %5, align 8
  %11 = load ptr, ptr %7, align 8
  %12 = getelementptr inbounds nuw %struct.aiBone, ptr %11, i32 0, i32 0
  call void @_ZN6Assimp17ValidateDSProcess8ValidateEPK8aiString(ptr noundef nonnull align 8 dereferenceable(32) %10, ptr noundef %12)
  %13 = load ptr, ptr %7, align 8
  %14 = getelementptr inbounds nuw %struct.aiBone, ptr %13, i32 0, i32 1
  %15 = load i32, ptr %14, align 4
  %16 = icmp ne i32 %15, 0
  br i1 %16, label %18, label %17

17:                                               ; preds = %4
  call void (ptr, ptr, ...) @_ZN6Assimp17ValidateDSProcess13ReportWarningEPKcz(ptr noundef nonnull align 8 dereferenceable(32) %10, ptr noundef @.str.52)
  br label %18

18:                                               ; preds = %17, %4
  call void @llvm.lifetime.start.p0(i64 4, ptr %9) #19
  store i32 0, ptr %9, align 4
  br label %19

19:                                               ; preds = %95, %18
  %20 = load i32, ptr %9, align 4
  %21 = load ptr, ptr %7, align 8
  %22 = getelementptr inbounds nuw %struct.aiBone, ptr %21, i32 0, i32 1
  %23 = load i32, ptr %22, align 4
  %24 = icmp ult i32 %20, %23
  br i1 %24, label %26, label %25

25:                                               ; preds = %19
  call void @llvm.lifetime.end.p0(i64 4, ptr %9) #19
  br label %98

26:                                               ; preds = %19
  %27 = load ptr, ptr %7, align 8
  %28 = getelementptr inbounds nuw %struct.aiBone, ptr %27, i32 0, i32 4
  %29 = load ptr, ptr %28, align 8
  %30 = load i32, ptr %9, align 4
  %31 = zext i32 %30 to i64
  %32 = getelementptr inbounds nuw %struct.aiVertexWeight, ptr %29, i64 %31
  %33 = getelementptr inbounds nuw %struct.aiVertexWeight, ptr %32, i32 0, i32 0
  %34 = load i32, ptr %33, align 4
  %35 = load ptr, ptr %6, align 8
  %36 = getelementptr inbounds nuw %struct.aiMesh, ptr %35, i32 0, i32 1
  %37 = load i32, ptr %36, align 4
  %38 = icmp uge i32 %34, %37
  br i1 %38, label %39, label %41

39:                                               ; preds = %26
  %40 = load i32, ptr %9, align 4
  call void (ptr, ptr, ...) @_ZN6Assimp17ValidateDSProcess11ReportErrorEPKcz(ptr noundef nonnull align 8 dereferenceable(32) %10, ptr noundef @.str.53, i32 noundef %40) #20
  unreachable

41:                                               ; preds = %26
  %42 = load ptr, ptr %7, align 8
  %43 = getelementptr inbounds nuw %struct.aiBone, ptr %42, i32 0, i32 4
  %44 = load ptr, ptr %43, align 8
  %45 = load i32, ptr %9, align 4
  %46 = zext i32 %45 to i64
  %47 = getelementptr inbounds nuw %struct.aiVertexWeight, ptr %44, i64 %46
  %48 = getelementptr inbounds nuw %struct.aiVertexWeight, ptr %47, i32 0, i32 1
  %49 = load float, ptr %48, align 4
  %50 = fcmp une float %49, 0.000000e+00
  br i1 %50, label %51, label %61

51:                                               ; preds = %41
  %52 = load ptr, ptr %7, align 8
  %53 = getelementptr inbounds nuw %struct.aiBone, ptr %52, i32 0, i32 4
  %54 = load ptr, ptr %53, align 8
  %55 = load i32, ptr %9, align 4
  %56 = zext i32 %55 to i64
  %57 = getelementptr inbounds nuw %struct.aiVertexWeight, ptr %54, i64 %56
  %58 = getelementptr inbounds nuw %struct.aiVertexWeight, ptr %57, i32 0, i32 1
  %59 = load float, ptr %58, align 4
  %60 = fcmp ogt float %59, 1.000000e+00
  br i1 %60, label %61, label %72

61:                                               ; preds = %51, %41
  %62 = load i32, ptr %9, align 4
  %63 = load ptr, ptr %7, align 8
  %64 = getelementptr inbounds nuw %struct.aiBone, ptr %63, i32 0, i32 4
  %65 = load ptr, ptr %64, align 8
  %66 = load i32, ptr %9, align 4
  %67 = zext i32 %66 to i64
  %68 = getelementptr inbounds nuw %struct.aiVertexWeight, ptr %65, i64 %67
  %69 = getelementptr inbounds nuw %struct.aiVertexWeight, ptr %68, i32 0, i32 1
  %70 = load float, ptr %69, align 4
  %71 = fpext float %70 to double
  call void (ptr, ptr, ...) @_ZN6Assimp17ValidateDSProcess13ReportWarningEPKcz(ptr noundef nonnull align 8 dereferenceable(32) %10, ptr noundef @.str.54, i32 noundef %62, double noundef %71)
  br label %72

72:                                               ; preds = %61, %51
  br label %73

73:                                               ; preds = %72
  %74 = load ptr, ptr %7, align 8
  %75 = getelementptr inbounds nuw %struct.aiBone, ptr %74, i32 0, i32 4
  %76 = load ptr, ptr %75, align 8
  %77 = load i32, ptr %9, align 4
  %78 = zext i32 %77 to i64
  %79 = getelementptr inbounds nuw %struct.aiVertexWeight, ptr %76, i64 %78
  %80 = getelementptr inbounds nuw %struct.aiVertexWeight, ptr %79, i32 0, i32 1
  %81 = load float, ptr %80, align 4
  %82 = load ptr, ptr %8, align 8
  %83 = load ptr, ptr %7, align 8
  %84 = getelementptr inbounds nuw %struct.aiBone, ptr %83, i32 0, i32 4
  %85 = load ptr, ptr %84, align 8
  %86 = load i32, ptr %9, align 4
  %87 = zext i32 %86 to i64
  %88 = getelementptr inbounds nuw %struct.aiVertexWeight, ptr %85, i64 %87
  %89 = getelementptr inbounds nuw %struct.aiVertexWeight, ptr %88, i32 0, i32 0
  %90 = load i32, ptr %89, align 4
  %91 = zext i32 %90 to i64
  %92 = getelementptr inbounds nuw float, ptr %82, i64 %91
  %93 = load float, ptr %92, align 4
  %94 = fadd float %93, %81
  store float %94, ptr %92, align 4
  br label %95

95:                                               ; preds = %73
  %96 = load i32, ptr %9, align 4
  %97 = add i32 %96, 1
  store i32 %97, ptr %9, align 4
  br label %19, !llvm.loop !25

98:                                               ; preds = %25
  ret void
}