; Function Attrs: mustprogress uwtable
define hidden void @_ZN6Assimp17ValidateDSProcess8ValidateEPK6aiMeshPK6aiBonePf(ptr nonnull readnone align 8 captures(none) %0, ptr noundef readonly captures(none) %1, ptr noundef readonly captures(none) %2, ptr noundef captures(none) %3) local_unnamed_addr #7 align 2 {
  %5 = load i32, ptr %2, align 4
  %6 = icmp ugt i32 %5, 1024
  br i1 %6, label %9, label %.preheader.i

.preheader.i:                                     ; preds = %4
  %.0.ptr14.i = getelementptr inbounds nuw i8, ptr %2, i64 4
  %7 = load i8, ptr %.0.ptr14.i, align 1
  %8 = icmp eq i8 %7, 0
  br i1 %8, label %._crit_edge.i, label %.lr.ph.i

9:                                                ; preds = %4
  tail call void (ptr, ptr, ...) @_ZN6Assimp17ValidateDSProcess11ReportErrorEPKcz(ptr nonnull readnone align 8 poison, ptr noundef nonnull @.str.114, i32 noundef %5, i64 noundef 1024) #24
  unreachable

._crit_edge.loopexit.i:                           ; preds = %14
  %10 = trunc i64 %.0.add.i to i32
  %11 = add nsw i32 %10, -4
  br label %._crit_edge.i

._crit_edge.i:                                    ; preds = %._crit_edge.loopexit.i, %.preheader.i
  %.0.idx.lcssa.i = phi i32 [ 0, %.preheader.i ], [ %11, %._crit_edge.loopexit.i ]
  %.not12.i = icmp eq i32 %5, %.0.idx.lcssa.i
  br i1 %.not12.i, label %_ZN6Assimp17ValidateDSProcess8ValidateEPK8aiString.exit, label %12

12:                                               ; preds = %._crit_edge.i
  tail call void (ptr, ptr, ...) @_ZN6Assimp17ValidateDSProcess11ReportErrorEPKcz(ptr nonnull readnone align 8 poison, ptr noundef nonnull @.str.115) #24
  unreachable

.lr.ph.i:                                         ; preds = %.preheader.i, %14
  %.0.idx15.i = phi i64 [ %.0.add.i, %14 ], [ 4, %.preheader.i ]
  %exitcond.not.i = icmp eq i64 %.0.idx15.i, 1028
  br i1 %exitcond.not.i, label %13, label %14

13:                                               ; preds = %.lr.ph.i
  tail call void (ptr, ptr, ...) @_ZN6Assimp17ValidateDSProcess11ReportErrorEPKcz(ptr nonnull readnone align 8 poison, ptr noundef nonnull @.str.116) #24
  unreachable

14:                                               ; preds = %.lr.ph.i
  %.0.add.i = add nuw nsw i64 %.0.idx15.i, 1
  %.0.ptr.i = getelementptr inbounds nuw i8, ptr %2, i64 %.0.add.i
  %15 = load i8, ptr %.0.ptr.i, align 1
  %16 = icmp eq i8 %15, 0
  br i1 %16, label %._crit_edge.loopexit.i, label %.lr.ph.i, !llvm.loop !8

_ZN6Assimp17ValidateDSProcess8ValidateEPK8aiString.exit: ; preds = %._crit_edge.i
  %17 = getelementptr inbounds nuw i8, ptr %2, i64 1028
  %18 = load i32, ptr %17, align 4
  %.not = icmp eq i32 %18, 0
  br i1 %.not, label %19, label %.lr.ph

19:                                               ; preds = %_ZN6Assimp17ValidateDSProcess8ValidateEPK8aiString.exit
  tail call void (ptr, ptr, ...) @_ZN6Assimp17ValidateDSProcess13ReportWarningEPKcz(ptr nonnull align 8 poison, ptr noundef nonnull @.str.52)
  %.pre = load i32, ptr %17, align 4
  %20 = icmp eq i32 %.pre, 0
  br i1 %20, label %._crit_edge, label %.lr.ph

.lr.ph:                                           ; preds = %_ZN6Assimp17ValidateDSProcess8ValidateEPK8aiString.exit, %19
  %21 = getelementptr inbounds nuw i8, ptr %2, i64 1048
  %22 = getelementptr inbounds nuw i8, ptr %1, i64 4
  br label %23

._crit_edge:                                      ; preds = %38, %19
  ret void

23:                                               ; preds = %.lr.ph, %38
  %indvars.iv = phi i64 [ 0, %.lr.ph ], [ %indvars.iv.next, %38 ]
  %24 = load ptr, ptr %21, align 8
  %25 = getelementptr inbounds nuw %struct.aiVertexWeight, ptr %24, i64 %indvars.iv
  %26 = load i32, ptr %25, align 4
  %27 = load i32, ptr %22, align 4
  %.not22 = icmp ult i32 %26, %27
  br i1 %.not22, label %30, label %28

28:                                               ; preds = %23
  %29 = trunc nuw i64 %indvars.iv to i32
  tail call void (ptr, ptr, ...) @_ZN6Assimp17ValidateDSProcess11ReportErrorEPKcz(ptr nonnull align 8 poison, ptr noundef nonnull @.str.53, i32 noundef %29) #24
  unreachable

30:                                               ; preds = %23
  %31 = getelementptr inbounds nuw i8, ptr %25, i64 4
  %32 = load float, ptr %31, align 4
  %33 = fcmp oeq float %32, 0.000000e+00
  %34 = fcmp ogt float %32, 1.000000e+00
  %or.cond = or i1 %33, %34
  br i1 %or.cond, label %35, label %38

35:                                               ; preds = %30
  %36 = fpext float %32 to double
  %37 = trunc nuw i64 %indvars.iv to i32
  tail call void (ptr, ptr, ...) @_ZN6Assimp17ValidateDSProcess13ReportWarningEPKcz(ptr nonnull align 8 poison, ptr noundef nonnull @.str.54, i32 noundef %37, double noundef %36)
  %.pre28 = load ptr, ptr %21, align 8
  %.phi.trans.insert = getelementptr inbounds nuw %struct.aiVertexWeight, ptr %.pre28, i64 %indvars.iv
  %.phi.trans.insert29 = getelementptr inbounds nuw i8, ptr %.phi.trans.insert, i64 4
  %.pre30 = load float, ptr %.phi.trans.insert29, align 4
  %.pre31 = load i32, ptr %.phi.trans.insert, align 4
  br label %38

38:                                               ; preds = %30, %35
  %39 = phi i32 [ %26, %30 ], [ %.pre31, %35 ]
  %40 = phi float [ %32, %30 ], [ %.pre30, %35 ]
  %41 = zext i32 %39 to i64
  %42 = getelementptr inbounds nuw float, ptr %3, i64 %41
  %43 = load float, ptr %42, align 4
  %44 = fadd float %40, %43
  store float %44, ptr %42, align 4
  %indvars.iv.next = add nuw nsw i64 %indvars.iv, 1
  %45 = load i32, ptr %17, align 4
  %46 = zext i32 %45 to i64
  %47 = icmp samesign ult i64 %indvars.iv.next, %46
  br i1 %47, label %23, label %._crit_edge, !llvm.loop !22
}